target datalayout = "e-m:e-p270:32:32-p271:32:32-p272:64:64-i64:64-i128:128-f80:128-n8:16:32:64-S128"
target triple = "x86_64-pc-linux-gnu"

%struct.lua_TValue = type { %union.Value, [1 x i32], i32 }
%union.Value = type { ptr }
%struct.LuaTable = type { i8, i8, i8, i8, i8, i8, i8, i8, i32, %union.anon.4, ptr, ptr, ptr, ptr }
%union.anon.4 = type { i32 }
%struct.GCheader = type { i8, i8, i8 }

; Function Attrs: inlinehint mustprogress nounwind uwtable
define linkonce_odr dso_local noundef zeroext i1 @_Z13luai_vecisnanPKf(ptr noundef %0) #14 comdat {
  %2 = alloca ptr, align 8
  store ptr %0, ptr %2, align 8, !tbaa !72
  %3 = load ptr, ptr %2, align 8, !tbaa !72
  %4 = getelementptr inbounds float, ptr %3, i64 0
  %5 = load float, ptr %4, align 4, !tbaa !70
  %6 = load ptr, ptr %2, align 8, !tbaa !72
  %7 = getelementptr inbounds float, ptr %6, i64 0
  %8 = load float, ptr %7, align 4, !tbaa !70
  %9 = fcmp une float %5, %8
  br i1 %9, label %26, label %10

10:                                               ; preds = %1
  %11 = load ptr, ptr %2, align 8, !tbaa !72
  %12 = getelementptr inbounds float, ptr %11, i64 1
  %13 = load float, ptr %12, align 4, !tbaa !70
  %14 = load ptr, ptr %2, align 8, !tbaa !72
  %15 = getelementptr inbounds float, ptr %14, i64 1
  %16 = load float, ptr %15, align 4, !tbaa !70
  %17 = fcmp une float %13, %16
  br i1 %17, label %26, label %18

18:                                               ; preds = %10
  %19 = load ptr, ptr %2, align 8, !tbaa !72
  %20 = getelementptr inbounds float, ptr %19, i64 2
  %21 = load float, ptr %20, align 4, !tbaa !70
  %22 = load ptr, ptr %2, align 8, !tbaa !72
  %23 = getelementptr inbounds float, ptr %22, i64 2
  %24 = load float, ptr %23, align 4, !tbaa !70
  %25 = fcmp une float %21, %24
  br label %26

26:                                               ; preds = %18, %10, %1
  %27 = phi i1 [ true, %10 ], [ true, %1 ], [ %25, %18 ]
  ret i1 %27
}

; Function Attrs: mustprogress uwtable
define internal noundef i32 @_ZL12luauF_rawsetP9lua_StateP10lua_TValueS2_iS2_i(ptr noundef %0, ptr noundef %1, ptr noundef %2, i32 noundef %3, ptr noundef %4, i32 noundef %5) #3 {
  %7 = alloca i32, align 4
  %8 = alloca ptr, align 8
  %9 = alloca ptr, align 8
  %10 = alloca ptr, align 8
  %11 = alloca i32, align 4
  %12 = alloca ptr, align 8
  %13 = alloca i32, align 4
  %14 = alloca ptr, align 8
  %15 = alloca i32, align 4
  %16 = alloca ptr, align 8
  %17 = alloca ptr, align 8
  %18 = alloca ptr, align 8
  %19 = alloca ptr, align 8
  %20 = alloca ptr, align 8
  store ptr %0, ptr %8, align 8, !tbaa !4
  store ptr %1, ptr %9, align 8, !tbaa !9
  store ptr %2, ptr %10, align 8, !tbaa !9
  store i32 %3, ptr %11, align 4, !tbaa !11
  store ptr %4, ptr %12, align 8, !tbaa !9
  store i32 %5, ptr %13, align 4, !tbaa !11
  %21 = load i32, ptr %13, align 4, !tbaa !11
  %22 = icmp sge i32 %21, 3
  br i1 %22, label %23, label %120

23:                                               ; preds = %6
  %24 = load i32, ptr %11, align 4, !tbaa !11
  %25 = icmp sle i32 %24, 1
  br i1 %25, label %26, label %120

26:                                               ; preds = %23
  %27 = load ptr, ptr %10, align 8, !tbaa !9
  %28 = getelementptr inbounds nuw %struct.lua_TValue, ptr %27, i32 0, i32 2
  %29 = load i32, ptr %28, align 4, !tbaa !13
  %30 = icmp eq i32 %29, 6
  br i1 %30, label %31, label %120

31:                                               ; preds = %26
  call void @llvm.lifetime.start.p0(i64 8, ptr %14) #17
  %32 = load ptr, ptr %12, align 8, !tbaa !9
  store ptr %32, ptr %14, align 8, !tbaa !9
  %33 = load ptr, ptr %14, align 8, !tbaa !9
  %34 = getelementptr inbounds nuw %struct.lua_TValue, ptr %33, i32 0, i32 2
  %35 = load i32, ptr %34, align 4, !tbaa !13
  %36 = icmp eq i32 %35, 0
  br i1 %36, label %37, label %38

37:                                               ; preds = %31
  store i32 -1, ptr %7, align 4
  store i32 1, ptr %15, align 4
  br label %119

38:                                               ; preds = %31
  %39 = load ptr, ptr %14, align 8, !tbaa !9
  %40 = getelementptr inbounds nuw %struct.lua_TValue, ptr %39, i32 0, i32 2
  %41 = load i32, ptr %40, align 4, !tbaa !13
  %42 = icmp eq i32 %41, 3
  br i1 %42, label %43, label %52

43:                                               ; preds = %38
  %44 = load ptr, ptr %14, align 8, !tbaa !9
  %45 = getelementptr inbounds nuw %struct.lua_TValue, ptr %44, i32 0, i32 0
  %46 = load double, ptr %45, align 8, !tbaa !15
  %47 = load ptr, ptr %14, align 8, !tbaa !9
  %48 = getelementptr inbounds nuw %struct.lua_TValue, ptr %47, i32 0, i32 0
  %49 = load double, ptr %48, align 8, !tbaa !15
  %50 = fcmp une double %46, %49
  br i1 %50, label %51, label %52

51:                                               ; preds = %43
  store i32 -1, ptr %7, align 4
  store i32 1, ptr %15, align 4
  br label %119

52:                                               ; preds = %43, %38
  %53 = load ptr, ptr %14, align 8, !tbaa !9
  %54 = getelementptr inbounds nuw %struct.lua_TValue, ptr %53, i32 0, i32 2
  %55 = load i32, ptr %54, align 4, !tbaa !13
  %56 = icmp eq i32 %55, 4
  br i1 %56, label %57, label %63

57:                                               ; preds = %52
  %58 = load ptr, ptr %14, align 8, !tbaa !9
  %59 = getelementptr inbounds nuw %struct.lua_TValue, ptr %58, i32 0, i32 0
  %60 = getelementptr inbounds [2 x float], ptr %59, i64 0, i64 0
  %61 = call noundef zeroext i1 @_Z13luai_vecisnanPKf(ptr noundef %60)
  br i1 %61, label %62, label %63

62:                                               ; preds = %57
  store i32 -1, ptr %7, align 4
  store i32 1, ptr %15, align 4
  br label %119

63:                                               ; preds = %57, %52
  br label %64

64:                                               ; preds = %63
  br label %65

65:                                               ; preds = %64
  call void @llvm.lifetime.start.p0(i64 8, ptr %16) #17
  %66 = load ptr, ptr %10, align 8, !tbaa !9
  %67 = getelementptr inbounds nuw %struct.lua_TValue, ptr %66, i32 0, i32 0
  %68 = load ptr, ptr %67, align 8, !tbaa !15
  store ptr %68, ptr %16, align 8, !tbaa !57
  %69 = load ptr, ptr %16, align 8, !tbaa !57
  %70 = getelementptr inbounds nuw %struct.LuaTable, ptr %69, i32 0, i32 4
  %71 = load i8, ptr %70, align 4, !tbaa !58
  %72 = icmp ne i8 %71, 0
  br i1 %72, label %73, label %74

73:                                               ; preds = %65
  store i32 -1, ptr %7, align 4
  store i32 1, ptr %15, align 4
  br label %118

74:                                               ; preds = %65
  call void @llvm.lifetime.start.p0(i64 8, ptr %17) #17
  %75 = load ptr, ptr %10, align 8, !tbaa !9
  store ptr %75, ptr %17, align 8, !tbaa !9
  call void @llvm.lifetime.start.p0(i64 8, ptr %18) #17
  %76 = load ptr, ptr %9, align 8, !tbaa !9
  store ptr %76, ptr %18, align 8, !tbaa !9
  %77 = load ptr, ptr %17, align 8, !tbaa !9
  %78 = load ptr, ptr %18, align 8, !tbaa !9
  call void @llvm.memcpy.p0.p0.i64(ptr align 8 %78, ptr align 8 %77, i64 16, i1 false), !tbaa.struct !61
  call void @llvm.lifetime.end.p0(i64 8, ptr %18) #17
  call void @llvm.lifetime.end.p0(i64 8, ptr %17) #17
  call void @llvm.lifetime.start.p0(i64 8, ptr %19) #17
  %79 = load ptr, ptr %12, align 8, !tbaa !9
  %80 = getelementptr inbounds %struct.lua_TValue, ptr %79, i64 1
  store ptr %80, ptr %19, align 8, !tbaa !9
  call void @llvm.lifetime.start.p0(i64 8, ptr %20) #17
  %81 = load ptr, ptr %8, align 8, !tbaa !4
  %82 = load ptr, ptr %16, align 8, !tbaa !57
  %83 = load ptr, ptr %12, align 8, !tbaa !9
  %84 = call noundef ptr @_Z8luaH_setP9lua_StateP8LuaTablePK10lua_TValue(ptr noundef %81, ptr noundef %82, ptr noundef %83)
  store ptr %84, ptr %20, align 8, !tbaa !9
  %85 = load ptr, ptr %19, align 8, !tbaa !9
  %86 = load ptr, ptr %20, align 8, !tbaa !9
  call void @llvm.memcpy.p0.p0.i64(ptr align 8 %86, ptr align 8 %85, i64 16, i1 false), !tbaa.struct !61
  call void @llvm.lifetime.end.p0(i64 8, ptr %20) #17
  call void @llvm.lifetime.end.p0(i64 8, ptr %19) #17
  %87 = load ptr, ptr %12, align 8, !tbaa !9
  %88 = getelementptr inbounds %struct.lua_TValue, ptr %87, i64 1
  %89 = getelementptr inbounds nuw %struct.lua_TValue, ptr %88, i32 0, i32 2
  %90 = load i32, ptr %89, align 4, !tbaa !13
  %91 = icmp sge i32 %90, 5
  br i1 %91, label %92, label %117

92:                                               ; preds = %74
  %93 = load ptr, ptr %16, align 8, !tbaa !57
  %94 = getelementptr inbounds %struct.LuaTable, ptr %93, i64 0
  %95 = getelementptr inbounds nuw %struct.GCheader, ptr %94, i32 0, i32 1
  %96 = load i8, ptr %95, align 1, !tbaa !15
  %97 = zext i8 %96 to i32
  %98 = and i32 %97, 4
  %99 = icmp ne i32 %98, 0
  br i1 %99, label %100, label %117

100:                                              ; preds = %92
  %101 = load ptr, ptr %12, align 8, !tbaa !9
  %102 = getelementptr inbounds %struct.lua_TValue, ptr %101, i64 1
  %103 = getelementptr inbounds nuw %struct.lua_TValue, ptr %102, i32 0, i32 0
  %104 = load ptr, ptr %103, align 8, !tbaa !15
  %105 = getelementptr inbounds nuw %struct.GCheader, ptr %104, i32 0, i32 1
  %106 = load i8, ptr %105, align 1, !tbaa !15
  %107 = zext i8 %106 to i32
  %108 = and i32 %107, 3
  %109 = icmp ne i32 %108, 0
  br i1 %109, label %110, label %117

110:                                              ; preds = %100
  %111 = load ptr, ptr %8, align 8, !tbaa !4
  %112 = load ptr, ptr %16, align 8, !tbaa !57
  %113 = load ptr, ptr %12, align 8, !tbaa !9
  %114 = getelementptr inbounds %struct.lua_TValue, ptr %113, i64 1
  %115 = getelementptr inbounds nuw %struct.lua_TValue, ptr %114, i32 0, i32 0
  %116 = load ptr, ptr %115, align 8, !tbaa !15
  call void @_Z17luaC_barriertableP9lua_StateP8LuaTableP8GCObject(ptr noundef %111, ptr noundef %112, ptr noundef %116)
  br label %117

117:                                              ; preds = %110, %100, %92, %74
  store i32 1, ptr %7, align 4
  store i32 1, ptr %15, align 4
  br label %118

118:                                              ; preds = %117, %73
  call void @llvm.lifetime.end.p0(i64 8, ptr %16) #17
  br label %119

119:                                              ; preds = %118, %62, %51, %37
  call void @llvm.lifetime.end.p0(i64 8, ptr %14) #17
  br label %121

120:                                              ; preds = %26, %23, %6
  store i32 -1, ptr %7, align 4
  br label %121

121:                                              ; preds = %120, %119
  %122 = load i32, ptr %7, align 4
  ret i32 %122
}