; Function Attrs: mustprogress uwtable
define internal noundef range(i32 -1, 2) i32 @_ZL12luauF_rawsetP9lua_StateP10lua_TValueS2_iS2_i(ptr noundef %0, ptr noundef writeonly captures(none) %1, ptr noundef readonly captures(none) %2, i32 noundef %3, ptr noundef %4, i32 noundef %5) #8 {
  %7 = icmp sgt i32 %5, 2
  %8 = icmp slt i32 %3, 2
  %or.cond = and i1 %8, %7
  br i1 %or.cond, label %9, label %_Z13luai_vecisnanPKf.exit.thread

9:                                                ; preds = %6
  %10 = getelementptr inbounds nuw i8, ptr %2, i64 12
  %11 = load i32, ptr %10, align 4, !tbaa !4
  %12 = icmp eq i32 %11, 6
  br i1 %12, label %13, label %_Z13luai_vecisnanPKf.exit.thread

13:                                               ; preds = %9
  %14 = getelementptr inbounds nuw i8, ptr %4, i64 12
  %15 = load i32, ptr %14, align 4, !tbaa !4
  switch i32 %15, label %.thread [
    i32 0, label %_Z13luai_vecisnanPKf.exit.thread
    i32 3, label %16
    i32 4, label %19
  ]

16:                                               ; preds = %13
  %17 = load double, ptr %4, align 8, !tbaa !9
  %18 = fcmp uno double %17, 0.000000e+00
  br i1 %18, label %_Z13luai_vecisnanPKf.exit.thread, label %.thread

19:                                               ; preds = %13
  %20 = load float, ptr %4, align 4, !tbaa !51
  %21 = fcmp uno float %20, 0.000000e+00
  br i1 %21, label %_Z13luai_vecisnanPKf.exit.thread, label %22

22:                                               ; preds = %19
  %23 = getelementptr inbounds nuw i8, ptr %4, i64 4
  %24 = load float, ptr %23, align 4, !tbaa !51
  %25 = fcmp uno float %24, 0.000000e+00
  br i1 %25, label %_Z13luai_vecisnanPKf.exit.thread, label %_Z13luai_vecisnanPKf.exit

_Z13luai_vecisnanPKf.exit:                        ; preds = %22
  %26 = getelementptr inbounds nuw i8, ptr %4, i64 8
  %27 = load float, ptr %26, align 4, !tbaa !51
  %28 = fcmp uno float %27, 0.000000e+00
  br i1 %28, label %_Z13luai_vecisnanPKf.exit.thread, label %.thread

.thread:                                          ; preds = %13, %16, %_Z13luai_vecisnanPKf.exit
  %29 = load ptr, ptr %2, align 8, !tbaa !9
  %30 = getelementptr inbounds nuw i8, ptr %29, i64 4
  %31 = load i8, ptr %30, align 4, !tbaa !53
  %.not = icmp eq i8 %31, 0
  br i1 %.not, label %32, label %_Z13luai_vecisnanPKf.exit.thread

32:                                               ; preds = %.thread
  tail call void @llvm.memcpy.p0.p0.i64(ptr noundef nonnull align 8 dereferenceable(16) %1, ptr noundef nonnull align 8 dereferenceable(16) %2, i64 16, i1 false), !tbaa.struct !56
  %33 = getelementptr inbounds nuw i8, ptr %4, i64 16
  %34 = tail call noundef ptr @_Z8luaH_setP9lua_StateP8LuaTablePK10lua_TValue(ptr noundef %0, ptr noundef nonnull %29, ptr noundef nonnull %4)
  tail call void @llvm.memcpy.p0.p0.i64(ptr noundef nonnull align 8 dereferenceable(16) %34, ptr noundef nonnull align 8 dereferenceable(16) %33, i64 16, i1 false), !tbaa.struct !56
  %35 = getelementptr inbounds nuw i8, ptr %4, i64 28
  %36 = load i32, ptr %35, align 4, !tbaa !4
  %37 = icmp sgt i32 %36, 4
  br i1 %37, label %38, label %_Z13luai_vecisnanPKf.exit.thread

38:                                               ; preds = %32
  %39 = getelementptr inbounds nuw i8, ptr %29, i64 1
  %40 = load i8, ptr %39, align 1, !tbaa !9
  %41 = and i8 %40, 4
  %.not30 = icmp eq i8 %41, 0
  br i1 %.not30, label %_Z13luai_vecisnanPKf.exit.thread, label %42

42:                                               ; preds = %38
  %43 = load ptr, ptr %33, align 8, !tbaa !9
  %44 = getelementptr inbounds nuw i8, ptr %43, i64 1
  %45 = load i8, ptr %44, align 1, !tbaa !9
  %46 = and i8 %45, 3
  %.not31 = icmp eq i8 %46, 0
  br i1 %.not31, label %_Z13luai_vecisnanPKf.exit.thread, label %47

47:                                               ; preds = %42
  tail call void @_Z17luaC_barriertableP9lua_StateP8LuaTableP8GCObject(ptr noundef %0, ptr noundef nonnull %29, ptr noundef nonnull %43)
  br label %_Z13luai_vecisnanPKf.exit.thread

_Z13luai_vecisnanPKf.exit.thread:                 ; preds = %13, %19, %22, %6, %9, %16, %_Z13luai_vecisnanPKf.exit, %32, %38, %42, %47, %.thread
  %.2 = phi i32 [ -1, %13 ], [ -1, %16 ], [ -1, %_Z13luai_vecisnanPKf.exit ], [ -1, %.thread ], [ 1, %47 ], [ 1, %42 ], [ 1, %38 ], [ 1, %32 ], [ -1, %9 ], [ -1, %6 ], [ -1, %22 ], [ -1, %19 ]
  ret i32 %.2
}